; Function Attrs: mustprogress nofree norecurse nosync nounwind willreturn memory(none) uwtable
define signext range(i8 0, 2) i8 @u_isJavaIDPart_77(i32 noundef %0) local_unnamed_addr #0 {
  %2 = icmp ult i32 %0, 55296
  br i1 %2, label %3, label %5

3:                                                ; preds = %1
  %4 = lshr i32 %0, 5
  br label %.sink.split

5:                                                ; preds = %1
  %6 = icmp ult i32 %0, 65536
  br i1 %6, label %7, label %12

7:                                                ; preds = %5
  %8 = icmp samesign ult i32 %0, 56320
  %9 = select i1 %8, i32 320, i32 0
  %10 = lshr i32 %0, 5
  %11 = add nuw nsw i32 %9, %10
  br label %.sink.split

12:                                               ; preds = %5
  %13 = icmp ugt i32 %0, 1114111
  br i1 %13, label %32, label %14

14:                                               ; preds = %12
  %15 = lshr i32 %0, 11
  %16 = zext nneg i32 %15 to i64
  %17 = getelementptr inbounds nuw i16, ptr @_ZL15propsTrie_index, i64 %16
  %18 = getelementptr inbounds nuw i8, ptr %17, i64 4160
  %19 = load i16, ptr %18, align 2, !tbaa !3
  %20 = zext i16 %19 to i32
  %21 = lshr i32 %0, 5
  %22 = and i32 %21, 63
  %23 = add nuw nsw i32 %22, %20
  br label %.sink.split

.sink.split:                                      ; preds = %3, %14, %7
  %.sink17 = phi i32 [ %11, %7 ], [ %23, %14 ], [ %4, %3 ]
  %24 = zext nneg i32 %.sink17 to i64
  %25 = getelementptr inbounds nuw i16, ptr @_ZL15propsTrie_index, i64 %24
  %26 = load i16, ptr %25, align 2, !tbaa !3
  %27 = zext i16 %26 to i32
  %28 = shl nuw nsw i32 %27, 2
  %29 = and i32 %0, 31
  %30 = add nuw nsw i32 %28, %29
  %31 = zext nneg i32 %30 to i64
  br label %32

32:                                               ; preds = %.sink.split, %12
  %33 = phi i64 [ 4876, %12 ], [ %31, %.sink.split ]
  %34 = getelementptr inbounds nuw i16, ptr @_ZL15propsTrie_index, i64 %33
  %35 = load i16, ptr %34, align 2, !tbaa !3
  %36 = and i16 %35, 31
  %37 = zext nneg i16 %36 to i32
  %38 = shl nuw i32 1, %37
  %39 = and i32 %38, 37750654
  %.not = icmp eq i32 %39, 0
  br i1 %.not, label %40, label %85

40:                                               ; preds = %32
  %41 = icmp slt i32 %0, 160
  br i1 %41, label %42, label %49

42:                                               ; preds = %40
  %43 = icmp ugt i32 %0, 159
  %44 = add i32 %0, -32
  %45 = icmp ult i32 %44, 95
  %narrow.i.not.i = or i1 %43, %45
  br i1 %narrow.i.not.i, label %u_isIDIgnorable_77.exit, label %46

46:                                               ; preds = %42
  %or.cond.i = icmp ult i32 %44, -23
  %47 = add nsw i32 %0, -14
  %48 = icmp ult i32 %47, 14
  %narrow.i = select i1 %or.cond.i, i1 true, i1 %48
  br label %u_isIDIgnorable_77.exit

49:                                               ; preds = %40
  br i1 %2, label %50, label %52

50:                                               ; preds = %49
  %51 = lshr i32 %0, 5
  br label %.sink.split.i

52:                                               ; preds = %49
  %53 = icmp samesign ult i32 %0, 65536
  br i1 %53, label %54, label %59

54:                                               ; preds = %52
  %55 = icmp samesign ult i32 %0, 56320
  %56 = select i1 %55, i32 320, i32 0
  %57 = lshr i32 %0, 5
  %58 = add nuw nsw i32 %56, %57
  br label %.sink.split.i

59:                                               ; preds = %52
  %60 = icmp samesign ugt i32 %0, 1114111
  br i1 %60, label %79, label %61

61:                                               ; preds = %59
  %62 = lshr i32 %0, 11
  %63 = zext nneg i32 %62 to i64
  %64 = getelementptr inbounds nuw i16, ptr @_ZL15propsTrie_index, i64 %63
  %65 = getelementptr inbounds nuw i8, ptr %64, i64 4160
  %66 = load i16, ptr %65, align 2, !tbaa !3
  %67 = zext i16 %66 to i32
  %68 = lshr i32 %0, 5
  %69 = and i32 %68, 63
  %70 = add nuw nsw i32 %69, %67
  br label %.sink.split.i

.sink.split.i:                                    ; preds = %61, %54, %50
  %.sink27.i = phi i32 [ %58, %54 ], [ %70, %61 ], [ %51, %50 ]
  %71 = zext nneg i32 %.sink27.i to i64
  %72 = getelementptr inbounds nuw i16, ptr @_ZL15propsTrie_index, i64 %71
  %73 = load i16, ptr %72, align 2, !tbaa !3
  %74 = zext i16 %73 to i32
  %75 = shl nuw nsw i32 %74, 2
  %76 = and i32 %0, 31
  %77 = add nuw nsw i32 %75, %76
  %78 = zext nneg i32 %77 to i64
  br label %79

79:                                               ; preds = %.sink.split.i, %59
  %80 = phi i64 [ 4876, %59 ], [ %78, %.sink.split.i ]
  %81 = getelementptr inbounds nuw i16, ptr @_ZL15propsTrie_index, i64 %80
  %82 = load i16, ptr %81, align 2, !tbaa !3
  %83 = and i16 %82, 31
  %84 = icmp eq i16 %83, 16
  br label %u_isIDIgnorable_77.exit

u_isIDIgnorable_77.exit:                          ; preds = %42, %46, %79
  %.0.shrunk.i = phi i1 [ %84, %79 ], [ false, %42 ], [ %narrow.i, %46 ]
  %.0.i = zext i1 %.0.shrunk.i to i8
  br label %85

85:                                               ; preds = %u_isIDIgnorable_77.exit, %32
  %86 = phi i8 [ 1, %32 ], [ %.0.i, %u_isIDIgnorable_77.exit ]
  ret i8 %86
}